; Function Attrs: mustprogress nofree norecurse nosync nounwind willreturn memory(argmem: read) uwtable
define dso_local range(i32 0, 2) i32 @ziplistSafeToAdd(ptr noundef readonly captures(address_is_null) %0, i64 noundef %1) local_unnamed_addr #0 {
  %.not = icmp eq ptr %0, null
  br i1 %.not, label %6, label %3

3:                                                ; preds = %2
  %4 = load i32, ptr %0, align 4, !tbaa !5
  %5 = zext i32 %4 to i64
  br label %6

6:                                                ; preds = %2, %3
  %7 = phi i64 [ %5, %3 ], [ 0, %2 ]
  %8 = add i64 %7, %1
  %9 = icmp ult i64 %8, 1073741825
  %. = zext i1 %9 to i32
  ret i32 %.
}